; Function Attrs: nounwind uwtable
define hidden void @dissect_spc_reserve6(ptr noundef %0, ptr readnone captures(none) %1, ptr noundef %2, i32 noundef %3, i32 noundef %4, i32 noundef %5, i32 %6, ptr readnone captures(none) %7) #0 {
  %9 = icmp ne ptr %2, null
  %10 = icmp ne i32 %4, 0
  %or.cond = and i1 %9, %10
  %11 = icmp ne i32 %5, 0
  %or.cond3 = and i1 %or.cond, %11
  br i1 %or.cond3, label %12, label %17

12:                                               ; preds = %8
  %13 = add i32 %3, 4
  %14 = load i32, ptr @hf_scsi_control, align 4
  %15 = load i32, ptr @ett_scsi_control, align 4
  %16 = tail call ptr @proto_tree_add_bitmask(ptr noundef nonnull %2, ptr noundef %0, i32 noundef %13, i32 noundef %14, i32 noundef %15, ptr noundef nonnull @cdb_control_fields, i32 noundef 0) #10
  br label %17

17:                                               ; preds = %8, %12
  ret void
}